target datalayout = "e-m:e-p270:32:32-p271:32:32-p272:64:64-i64:64-i128:128-f80:128-n8:16:32:64-S128"
target triple = "x86_64-pc-linux-gnu"

%"struct.cv::DISOpticalFlowImpl::PatchInverseSearch_ParBody" = type { %"class.cv::ParallelLoopBody", ptr, i32, i32, i32, ptr, ptr, ptr, ptr, ptr, ptr, ptr, ptr, i32, i32 }
%"class.cv::ParallelLoopBody" = type { ptr }

@_ZTVN2cv16ParallelLoopBodyE = available_externally unnamed_addr constant { [5 x ptr] } { [5 x ptr] [ptr null, ptr @_ZTIN2cv16ParallelLoopBodyE, ptr @_ZN2cv16ParallelLoopBodyD1Ev, ptr @_ZN2cv16ParallelLoopBodyD0Ev, ptr @__cxa_pure_virtual] }, align 8

; Function Attrs: inlinehint mustprogress nounwind uwtable
define linkonce_odr hidden void @_ZN2cv16ParallelLoopBodyC2Ev(ptr noundef nonnull align 8 dereferenceable(8) %0) unnamed_addr #3 comdat align 2 {
  %2 = alloca ptr, align 8
  store ptr %0, ptr %2, align 8, !tbaa !170
  %3 = load ptr, ptr %2, align 8
  store ptr getelementptr inbounds inrange(-16, 24) ({ [5 x ptr] }, ptr @_ZTVN2cv16ParallelLoopBodyE, i32 0, i32 0, i32 2), ptr %3, align 8, !tbaa !8
  ret void
}

; Function Attrs: mustprogress nounwind uwtable
define hidden void @_ZN2cv18DISOpticalFlowImpl26PatchInverseSearch_ParBodyC2ERS0_iiRNS_3MatES4_S4_S4_S4_S4_S4_S4_ii(ptr noundef nonnull align 8 dereferenceable(104) %0, ptr noundef nonnull align 8 dereferenceable(1560) %1, i32 noundef %2, i32 noundef %3, ptr noundef nonnull align 8 dereferenceable(96) %4, ptr noundef nonnull align 8 dereferenceable(96) %5, ptr noundef nonnull align 8 dereferenceable(96) %6, ptr noundef nonnull align 8 dereferenceable(96) %7, ptr noundef nonnull align 8 dereferenceable(96) %8, ptr noundef nonnull align 8 dereferenceable(96) %9, ptr noundef nonnull align 8 dereferenceable(96) %10, ptr noundef nonnull align 8 dereferenceable(96) %11, i32 noundef %12, i32 noundef %13) unnamed_addr #2 align 2 {
  %15 = alloca ptr, align 8
  %16 = alloca ptr, align 8
  %17 = alloca i32, align 4
  %18 = alloca i32, align 4
  %19 = alloca ptr, align 8
  %20 = alloca ptr, align 8
  %21 = alloca ptr, align 8
  %22 = alloca ptr, align 8
  %23 = alloca ptr, align 8
  %24 = alloca ptr, align 8
  %25 = alloca ptr, align 8
  %26 = alloca ptr, align 8
  %27 = alloca i32, align 4
  %28 = alloca i32, align 4
  store ptr %0, ptr %15, align 8, !tbaa !152
  store ptr %1, ptr %16, align 8, !tbaa !3
  store i32 %2, ptr %17, align 4, !tbaa !60
  store i32 %3, ptr %18, align 4, !tbaa !60
  store ptr %4, ptr %19, align 8, !tbaa !97
  store ptr %5, ptr %20, align 8, !tbaa !97
  store ptr %6, ptr %21, align 8, !tbaa !97
  store ptr %7, ptr %22, align 8, !tbaa !97
  store ptr %8, ptr %23, align 8, !tbaa !97
  store ptr %9, ptr %24, align 8, !tbaa !97
  store ptr %10, ptr %25, align 8, !tbaa !97
  store ptr %11, ptr %26, align 8, !tbaa !97
  store i32 %12, ptr %27, align 4, !tbaa !60
  store i32 %13, ptr %28, align 4, !tbaa !60
  %29 = load ptr, ptr %15, align 8
  call void @_ZN2cv16ParallelLoopBodyC2Ev(ptr noundef nonnull align 8 dereferenceable(8) %29) #18
  store ptr getelementptr inbounds inrange(-16, 24) ({ [5 x ptr] }, ptr @_ZTVN2cv18DISOpticalFlowImpl26PatchInverseSearch_ParBodyE, i32 0, i32 0, i32 2), ptr %29, align 8, !tbaa !8
  %30 = getelementptr inbounds nuw %"struct.cv::DISOpticalFlowImpl::PatchInverseSearch_ParBody", ptr %29, i32 0, i32 1
  %31 = load ptr, ptr %16, align 8, !tbaa !3
  store ptr %31, ptr %30, align 8, !tbaa !154
  %32 = getelementptr inbounds nuw %"struct.cv::DISOpticalFlowImpl::PatchInverseSearch_ParBody", ptr %29, i32 0, i32 2
  %33 = load i32, ptr %17, align 4, !tbaa !60
  store i32 %33, ptr %32, align 8, !tbaa !157
  %34 = getelementptr inbounds nuw %"struct.cv::DISOpticalFlowImpl::PatchInverseSearch_ParBody", ptr %29, i32 0, i32 4
  %35 = load i32, ptr %18, align 4, !tbaa !60
  store i32 %35, ptr %34, align 8, !tbaa !158
  %36 = getelementptr inbounds nuw %"struct.cv::DISOpticalFlowImpl::PatchInverseSearch_ParBody", ptr %29, i32 0, i32 5
  %37 = load ptr, ptr %19, align 8, !tbaa !97
  store ptr %37, ptr %36, align 8, !tbaa !159
  %38 = getelementptr inbounds nuw %"struct.cv::DISOpticalFlowImpl::PatchInverseSearch_ParBody", ptr %29, i32 0, i32 6
  %39 = load ptr, ptr %20, align 8, !tbaa !97
  store ptr %39, ptr %38, align 8, !tbaa !160
  %40 = getelementptr inbounds nuw %"struct.cv::DISOpticalFlowImpl::PatchInverseSearch_ParBody", ptr %29, i32 0, i32 7
  %41 = load ptr, ptr %21, align 8, !tbaa !97
  store ptr %41, ptr %40, align 8, !tbaa !161
  %42 = getelementptr inbounds nuw %"struct.cv::DISOpticalFlowImpl::PatchInverseSearch_ParBody", ptr %29, i32 0, i32 8
  %43 = load ptr, ptr %22, align 8, !tbaa !97
  store ptr %43, ptr %42, align 8, !tbaa !162
  %44 = getelementptr inbounds nuw %"struct.cv::DISOpticalFlowImpl::PatchInverseSearch_ParBody", ptr %29, i32 0, i32 9
  %45 = load ptr, ptr %23, align 8, !tbaa !97
  store ptr %45, ptr %44, align 8, !tbaa !163
  %46 = getelementptr inbounds nuw %"struct.cv::DISOpticalFlowImpl::PatchInverseSearch_ParBody", ptr %29, i32 0, i32 10
  %47 = load ptr, ptr %24, align 8, !tbaa !97
  store ptr %47, ptr %46, align 8, !tbaa !164
  %48 = getelementptr inbounds nuw %"struct.cv::DISOpticalFlowImpl::PatchInverseSearch_ParBody", ptr %29, i32 0, i32 11
  %49 = load ptr, ptr %25, align 8, !tbaa !97
  store ptr %49, ptr %48, align 8, !tbaa !165
  %50 = getelementptr inbounds nuw %"struct.cv::DISOpticalFlowImpl::PatchInverseSearch_ParBody", ptr %29, i32 0, i32 12
  %51 = load ptr, ptr %26, align 8, !tbaa !97
  store ptr %51, ptr %50, align 8, !tbaa !166
  %52 = getelementptr inbounds nuw %"struct.cv::DISOpticalFlowImpl::PatchInverseSearch_ParBody", ptr %29, i32 0, i32 13
  %53 = load i32, ptr %27, align 4, !tbaa !60
  store i32 %53, ptr %52, align 8, !tbaa !167
  %54 = getelementptr inbounds nuw %"struct.cv::DISOpticalFlowImpl::PatchInverseSearch_ParBody", ptr %29, i32 0, i32 14
  %55 = load i32, ptr %28, align 4, !tbaa !60
  store i32 %55, ptr %54, align 4, !tbaa !168
  %56 = getelementptr inbounds nuw %"struct.cv::DISOpticalFlowImpl::PatchInverseSearch_ParBody", ptr %29, i32 0, i32 4
  %57 = load i32, ptr %56, align 8, !tbaa !158
  %58 = sitofp i32 %57 to double
  %59 = getelementptr inbounds nuw %"struct.cv::DISOpticalFlowImpl::PatchInverseSearch_ParBody", ptr %29, i32 0, i32 2
  %60 = load i32, ptr %59, align 8, !tbaa !157
  %61 = sitofp i32 %60 to double
  %62 = fdiv double %58, %61
  %63 = call double @llvm.ceil.f64(double %62)
  %64 = fptosi double %63 to i32
  %65 = getelementptr inbounds nuw %"struct.cv::DISOpticalFlowImpl::PatchInverseSearch_ParBody", ptr %29, i32 0, i32 3
  store i32 %64, ptr %65, align 4, !tbaa !169
  ret void
}