; Function Attrs: mustprogress nofree norecurse nosync nounwind willreturn memory(argmem: write) uwtable
define hidden void @_ZN2cv18DISOpticalFlowImpl26PatchInverseSearch_ParBodyC2ERS0_iiRNS_3MatES4_S4_S4_S4_S4_S4_S4_ii(ptr noundef nonnull writeonly align 8 captures(none) dereferenceable(104) initializes((0, 28), (32, 104)) %0, ptr noundef nonnull align 8 dereferenceable(1560) %1, i32 noundef %2, i32 noundef %3, ptr noundef nonnull align 8 dereferenceable(96) %4, ptr noundef nonnull align 8 dereferenceable(96) %5, ptr noundef nonnull align 8 dereferenceable(96) %6, ptr noundef nonnull align 8 dereferenceable(96) %7, ptr noundef nonnull align 8 dereferenceable(96) %8, ptr noundef nonnull align 8 dereferenceable(96) %9, ptr noundef nonnull align 8 dereferenceable(96) %10, ptr noundef nonnull align 8 dereferenceable(96) %11, i32 noundef %12, i32 noundef %13) unnamed_addr #7 align 2 {
  store ptr getelementptr inbounds nuw inrange(-16, 24) (i8, ptr @_ZTVN2cv18DISOpticalFlowImpl26PatchInverseSearch_ParBodyE, i64 16), ptr %0, align 8, !tbaa !3
  %15 = getelementptr inbounds nuw i8, ptr %0, i64 8
  store ptr %1, ptr %15, align 8, !tbaa !123
  %16 = getelementptr inbounds nuw i8, ptr %0, i64 16
  store i32 %2, ptr %16, align 8, !tbaa !128
  %17 = getelementptr inbounds nuw i8, ptr %0, i64 24
  store i32 %3, ptr %17, align 8, !tbaa !129
  %18 = getelementptr inbounds nuw i8, ptr %0, i64 32
  store ptr %4, ptr %18, align 8, !tbaa !130
  %19 = getelementptr inbounds nuw i8, ptr %0, i64 40
  store ptr %5, ptr %19, align 8, !tbaa !131
  %20 = getelementptr inbounds nuw i8, ptr %0, i64 48
  store ptr %6, ptr %20, align 8, !tbaa !132
  %21 = getelementptr inbounds nuw i8, ptr %0, i64 56
  store ptr %7, ptr %21, align 8, !tbaa !133
  %22 = getelementptr inbounds nuw i8, ptr %0, i64 64
  store ptr %8, ptr %22, align 8, !tbaa !134
  %23 = getelementptr inbounds nuw i8, ptr %0, i64 72
  store ptr %9, ptr %23, align 8, !tbaa !135
  %24 = getelementptr inbounds nuw i8, ptr %0, i64 80
  store ptr %10, ptr %24, align 8, !tbaa !136
  %25 = getelementptr inbounds nuw i8, ptr %0, i64 88
  store ptr %11, ptr %25, align 8, !tbaa !137
  %26 = getelementptr inbounds nuw i8, ptr %0, i64 96
  store i32 %12, ptr %26, align 8, !tbaa !138
  %27 = getelementptr inbounds nuw i8, ptr %0, i64 100
  store i32 %13, ptr %27, align 4, !tbaa !139
  %28 = sitofp i32 %3 to double
  %29 = sitofp i32 %2 to double
  %30 = fdiv double %28, %29
  %31 = tail call double @llvm.ceil.f64(double %30)
  %32 = fptosi double %31 to i32
  %33 = getelementptr inbounds nuw i8, ptr %0, i64 20
  store i32 %32, ptr %33, align 4, !tbaa !140
  ret void
}